; ModuleID = '25/148.c'
source_filename = "25/148.c"
target datalayout = "e-m:e-p270:32:32-p271:32:32-p272:64:64-i64:64-f80:128-n8:16:32:64-S128"
target triple = "x86_64-pc-linux-gnu"

@.str = private unnamed_addr constant [3 x i8] c"%d\00", align 1

; Function Attrs: noinline nounwind uwtable
define dso_local i32 @main(i32 %0, i8** %1) #0 {
  %3 = alloca i32, align 4
  %4 = alloca i32, align 4
  %5 = alloca i8**, align 8
  %6 = alloca i32, align 4
  %7 = alloca i32, align 4
  %8 = alloca i32, align 4
  %9 = alloca i32, align 4
  %10 = alloca [100 x i32], align 16
  store i32 0, i32* %3, align 4
  store i32 %0, i32* %4, align 4
  store i8** %1, i8*** %5, align 8
  store i32 1, i32* %8, align 4
  %11 = bitcast [100 x i32]* %10 to i8*
  call void @llvm.memset.p0i8.i64(i8* align 16 %11, i8 0, i64 400, i1 false)
  %12 = call i32 (i8*, ...) @__isoc99_scanf(i8* getelementptr inbounds ([3 x i8], [3 x i8]* @.str, i64 0, i64 0), i32* %9)
  %13 = getelementptr inbounds [100 x i32], [100 x i32]* %10, i64 0, i64 99
  store i32 1, i32* %13, align 4
  store i32 0, i32* %6, align 4
  br label %14

14:                                               ; preds = %64, %2
  %15 = load i32, i32* %6, align 4
  %16 = load i32, i32* %9, align 4
  %17 = icmp slt i32 %15, %16
  br i1 %17, label %18, label %67

18:                                               ; preds = %14
  store i32 99, i32* %7, align 4
  br label %19

19:                                               ; preds = %31, %18
  %20 = load i32, i32* %7, align 4
  %21 = icmp sge i32 %20, 0
  br i1 %21, label %22, label %34

22:                                               ; preds = %19
  %23 = load i32, i32* %7, align 4
  %24 = sext i32 %23 to i64
  %25 = getelementptr inbounds [100 x i32], [100 x i32]* %10, i64 0, i64 %24
  %26 = load i32, i32* %25, align 4
  %27 = mul nsw i32 %26, 2
  %28 = load i32, i32* %7, align 4
  %29 = sext i32 %28 to i64
  %30 = getelementptr inbounds [100 x i32], [100 x i32]* %10, i64 0, i64 %29
  store i32 %27, i32* %30, align 4
  br label %31

31:                                               ; preds = %22
  %32 = load i32, i32* %7, align 4
  %33 = add nsw i32 %32, -1
  store i32 %33, i32* %7, align 4
  br label %19

34:                                               ; preds = %19
  store i32 99, i32* %7, align 4
  br label %35

35:                                               ; preds = %60, %34
  %36 = load i32, i32* %7, align 4
  %37 = icmp sge i32 %36, 0
  br i1 %37, label %38, label %63

38:                                               ; preds = %35
  %39 = load i32, i32* %7, align 4
  %40 = sext i32 %39 to i64
  %41 = getelementptr inbounds [100 x i32], [100 x i32]* %10, i64 0, i64 %40
  %42 = load i32, i32* %41, align 4
  %43 = icmp sgt i32 %42, 9
  br i1 %43, label %44, label %59

44:                                               ; preds = %38
  %45 = load i32, i32* %7, align 4
  %46 = sext i32 %45 to i64
  %47 = getelementptr inbounds [100 x i32], [100 x i32]* %10, i64 0, i64 %46
  %48 = load i32, i32* %47, align 4
  %49 = sub nsw i32 %48, 10
  %50 = load i32, i32* %7, align 4
  %51 = sext i32 %50 to i64
  %52 = getelementptr inbounds [100 x i32], [100 x i32]* %10, i64 0, i64 %51
  store i32 %49, i32* %52, align 4
  %53 = load i32, i32* %7, align 4
  %54 = sub nsw i32 %53, 1
  %55 = sext i32 %54 to i64
  %56 = getelementptr inbounds [100 x i32], [100 x i32]* %10, i64 0, i64 %55
  %57 = load i32, i32* %56, align 4
  %58 = add nsw i32 %57, 1
  store i32 %58, i32* %56, align 4
  br label %59

59:                                               ; preds = %44, %38
  br label %60

60:                                               ; preds = %59
  %61 = load i32, i32* %7, align 4
  %62 = add nsw i32 %61, -1
  store i32 %62, i32* %7, align 4
  br label %35

63:                                               ; preds = %35
  br label %64

64:                                               ; preds = %63
  %65 = load i32, i32* %6, align 4
  %66 = add nsw i32 %65, 1
  store i32 %66, i32* %6, align 4
  br label %14

67:                                               ; preds = %14
  store i32 0, i32* %6, align 4
  br label %68

68:                                               ; preds = %79, %67
  %69 = load i32, i32* %6, align 4
  %70 = icmp slt i32 %69, 100
  br i1 %70, label %71, label %82

71:                                               ; preds = %68
  %72 = load i32, i32* %6, align 4
  %73 = sext i32 %72 to i64
  %74 = getelementptr inbounds [100 x i32], [100 x i32]* %10, i64 0, i64 %73
  %75 = load i32, i32* %74, align 4
  %76 = icmp sgt i32 %75, 0
  br i1 %76, label %77, label %78

77:                                               ; preds = %71
  br label %82

78:                                               ; preds = %71
  br label %79

79:                                               ; preds = %78
  %80 = load i32, i32* %6, align 4
  %81 = add nsw i32 %80, 1
  store i32 %81, i32* %6, align 4
  br label %68

82:                                               ; preds = %77, %68
  %83 = load i32, i32* %6, align 4
  store i32 %83, i32* %7, align 4
  br label %84

84:                                               ; preds = %93, %82
  %85 = load i32, i32* %7, align 4
  %86 = icmp slt i32 %85, 100
  br i1 %86, label %87, label %96

87:                                               ; preds = %84
  %88 = load i32, i32* %7, align 4
  %89 = sext i32 %88 to i64
  %90 = getelementptr inbounds [100 x i32], [100 x i32]* %10, i64 0, i64 %89
  %91 = load i32, i32* %90, align 4
  %92 = call i32 (i8*, ...) @printf(i8* getelementptr inbounds ([3 x i8], [3 x i8]* @.str, i64 0, i64 0), i32 %91)
  br label %93

93:                                               ; preds = %87
  %94 = load i32, i32* %7, align 4
  %95 = add nsw i32 %94, 1
  store i32 %95, i32* %7, align 4
  br label %84

96:                                               ; preds = %84
  ret i32 0
}

; Function Attrs: argmemonly nounwind willreturn
declare void @llvm.memset.p0i8.i64(i8* nocapture writeonly, i8, i64, i1 immarg) #1

declare dso_local i32 @__isoc99_scanf(i8*, ...) #2

declare dso_local i32 @printf(i8*, ...) #2


!llvm.module.flags = !{!0}
!llvm.ident = !{!1}

!0 = !{i32 1, !"wchar_size", i32 4}
!1 = !{!"clang version 10.0.0-4ubuntu1 "}
