; ModuleID = 'source-C-CXX/24/148.c'
source_filename = "source-C-CXX/24/148.c"
target datalayout = "e-m:e-p270:32:32-p271:32:32-p272:64:64-i64:64-f80:128-n8:16:32:64-S128"
target triple = "x86_64-pc-linux-gnu"

@.str = private unnamed_addr constant [3 x i8] c"%d\00", align 1

; Function Attrs: nofree nounwind sspstrong uwtable
define dso_local i32 @main(i32 %0, i8** nocapture readnone %1) local_unnamed_addr #0 {
  %3 = alloca i32, align 4
  %4 = alloca [100 x i32], align 16
  %5 = bitcast i32* %3 to i8*
  call void @llvm.lifetime.start.p0i8(i64 4, i8* nonnull %5) #4
  %6 = bitcast [100 x i32]* %4 to i8*
  call void @llvm.lifetime.start.p0i8(i64 400, i8* nonnull %6) #4
  call void @llvm.memset.p0i8.i64(i8* noundef nonnull align 16 dereferenceable(400) %6, i8 0, i64 400, i1 false)
  %7 = call i32 (i8*, ...) @__isoc99_scanf(i8* getelementptr inbounds ([3 x i8], [3 x i8]* @.str, i64 0, i64 0), i32* nonnull %3)
  %8 = getelementptr inbounds [100 x i32], [100 x i32]* %4, i64 0, i64 99
  store i32 1, i32* %8, align 4, !tbaa !5
  %9 = load i32, i32* %3, align 4, !tbaa !5
  %10 = icmp sgt i32 %9, 0
  br i1 %10, label %11, label %157

11:                                               ; preds = %2
  %12 = getelementptr inbounds [100 x i32], [100 x i32]* %4, i64 0, i64 96
  %13 = bitcast i32* %12 to <4 x i32>*
  %14 = bitcast i32* %12 to <4 x i32>*
  %15 = getelementptr inbounds [100 x i32], [100 x i32]* %4, i64 0, i64 92
  %16 = bitcast i32* %15 to <4 x i32>*
  %17 = bitcast i32* %15 to <4 x i32>*
  %18 = getelementptr inbounds [100 x i32], [100 x i32]* %4, i64 0, i64 88
  %19 = bitcast i32* %18 to <4 x i32>*
  %20 = bitcast i32* %18 to <4 x i32>*
  %21 = getelementptr inbounds [100 x i32], [100 x i32]* %4, i64 0, i64 84
  %22 = bitcast i32* %21 to <4 x i32>*
  %23 = bitcast i32* %21 to <4 x i32>*
  %24 = getelementptr inbounds [100 x i32], [100 x i32]* %4, i64 0, i64 80
  %25 = bitcast i32* %24 to <4 x i32>*
  %26 = bitcast i32* %24 to <4 x i32>*
  %27 = getelementptr inbounds [100 x i32], [100 x i32]* %4, i64 0, i64 76
  %28 = bitcast i32* %27 to <4 x i32>*
  %29 = bitcast i32* %27 to <4 x i32>*
  %30 = getelementptr inbounds [100 x i32], [100 x i32]* %4, i64 0, i64 72
  %31 = bitcast i32* %30 to <4 x i32>*
  %32 = bitcast i32* %30 to <4 x i32>*
  %33 = getelementptr inbounds [100 x i32], [100 x i32]* %4, i64 0, i64 68
  %34 = bitcast i32* %33 to <4 x i32>*
  %35 = bitcast i32* %33 to <4 x i32>*
  %36 = getelementptr inbounds [100 x i32], [100 x i32]* %4, i64 0, i64 64
  %37 = bitcast i32* %36 to <4 x i32>*
  %38 = bitcast i32* %36 to <4 x i32>*
  %39 = getelementptr inbounds [100 x i32], [100 x i32]* %4, i64 0, i64 60
  %40 = bitcast i32* %39 to <4 x i32>*
  %41 = bitcast i32* %39 to <4 x i32>*
  %42 = getelementptr inbounds [100 x i32], [100 x i32]* %4, i64 0, i64 56
  %43 = bitcast i32* %42 to <4 x i32>*
  %44 = bitcast i32* %42 to <4 x i32>*
  %45 = getelementptr inbounds [100 x i32], [100 x i32]* %4, i64 0, i64 52
  %46 = bitcast i32* %45 to <4 x i32>*
  %47 = bitcast i32* %45 to <4 x i32>*
  %48 = getelementptr inbounds [100 x i32], [100 x i32]* %4, i64 0, i64 48
  %49 = bitcast i32* %48 to <4 x i32>*
  %50 = bitcast i32* %48 to <4 x i32>*
  %51 = getelementptr inbounds [100 x i32], [100 x i32]* %4, i64 0, i64 44
  %52 = bitcast i32* %51 to <4 x i32>*
  %53 = bitcast i32* %51 to <4 x i32>*
  %54 = getelementptr inbounds [100 x i32], [100 x i32]* %4, i64 0, i64 40
  %55 = bitcast i32* %54 to <4 x i32>*
  %56 = bitcast i32* %54 to <4 x i32>*
  %57 = getelementptr inbounds [100 x i32], [100 x i32]* %4, i64 0, i64 36
  %58 = bitcast i32* %57 to <4 x i32>*
  %59 = bitcast i32* %57 to <4 x i32>*
  %60 = getelementptr inbounds [100 x i32], [100 x i32]* %4, i64 0, i64 32
  %61 = bitcast i32* %60 to <4 x i32>*
  %62 = bitcast i32* %60 to <4 x i32>*
  %63 = getelementptr inbounds [100 x i32], [100 x i32]* %4, i64 0, i64 28
  %64 = bitcast i32* %63 to <4 x i32>*
  %65 = bitcast i32* %63 to <4 x i32>*
  %66 = getelementptr inbounds [100 x i32], [100 x i32]* %4, i64 0, i64 24
  %67 = bitcast i32* %66 to <4 x i32>*
  %68 = bitcast i32* %66 to <4 x i32>*
  %69 = getelementptr inbounds [100 x i32], [100 x i32]* %4, i64 0, i64 20
  %70 = bitcast i32* %69 to <4 x i32>*
  %71 = bitcast i32* %69 to <4 x i32>*
  %72 = getelementptr inbounds [100 x i32], [100 x i32]* %4, i64 0, i64 16
  %73 = bitcast i32* %72 to <4 x i32>*
  %74 = bitcast i32* %72 to <4 x i32>*
  %75 = getelementptr inbounds [100 x i32], [100 x i32]* %4, i64 0, i64 12
  %76 = bitcast i32* %75 to <4 x i32>*
  %77 = bitcast i32* %75 to <4 x i32>*
  %78 = getelementptr inbounds [100 x i32], [100 x i32]* %4, i64 0, i64 8
  %79 = bitcast i32* %78 to <4 x i32>*
  %80 = bitcast i32* %78 to <4 x i32>*
  %81 = getelementptr inbounds [100 x i32], [100 x i32]* %4, i64 0, i64 4
  %82 = bitcast i32* %81 to <4 x i32>*
  %83 = bitcast i32* %81 to <4 x i32>*
  %84 = bitcast [100 x i32]* %4 to <4 x i32>*
  %85 = bitcast [100 x i32]* %4 to <4 x i32>*
  br label %86

86:                                               ; preds = %11, %154
  %87 = phi i32 [ %155, %154 ], [ 0, %11 ]
  %88 = load <4 x i32>, <4 x i32>* %13, align 16, !tbaa !5
  %89 = shl nsw <4 x i32> %88, <i32 1, i32 1, i32 1, i32 1>
  store <4 x i32> %89, <4 x i32>* %14, align 16, !tbaa !5
  %90 = load <4 x i32>, <4 x i32>* %16, align 16, !tbaa !5
  %91 = shl nsw <4 x i32> %90, <i32 1, i32 1, i32 1, i32 1>
  store <4 x i32> %91, <4 x i32>* %17, align 16, !tbaa !5
  %92 = load <4 x i32>, <4 x i32>* %19, align 16, !tbaa !5
  %93 = shl nsw <4 x i32> %92, <i32 1, i32 1, i32 1, i32 1>
  store <4 x i32> %93, <4 x i32>* %20, align 16, !tbaa !5
  %94 = load <4 x i32>, <4 x i32>* %22, align 16, !tbaa !5
  %95 = shl nsw <4 x i32> %94, <i32 1, i32 1, i32 1, i32 1>
  store <4 x i32> %95, <4 x i32>* %23, align 16, !tbaa !5
  %96 = load <4 x i32>, <4 x i32>* %25, align 16, !tbaa !5
  %97 = shl nsw <4 x i32> %96, <i32 1, i32 1, i32 1, i32 1>
  store <4 x i32> %97, <4 x i32>* %26, align 16, !tbaa !5
  %98 = load <4 x i32>, <4 x i32>* %28, align 16, !tbaa !5
  %99 = shl nsw <4 x i32> %98, <i32 1, i32 1, i32 1, i32 1>
  store <4 x i32> %99, <4 x i32>* %29, align 16, !tbaa !5
  %100 = load <4 x i32>, <4 x i32>* %31, align 16, !tbaa !5
  %101 = shl nsw <4 x i32> %100, <i32 1, i32 1, i32 1, i32 1>
  store <4 x i32> %101, <4 x i32>* %32, align 16, !tbaa !5
  %102 = load <4 x i32>, <4 x i32>* %34, align 16, !tbaa !5
  %103 = shl nsw <4 x i32> %102, <i32 1, i32 1, i32 1, i32 1>
  store <4 x i32> %103, <4 x i32>* %35, align 16, !tbaa !5
  %104 = load <4 x i32>, <4 x i32>* %37, align 16, !tbaa !5
  %105 = shl nsw <4 x i32> %104, <i32 1, i32 1, i32 1, i32 1>
  store <4 x i32> %105, <4 x i32>* %38, align 16, !tbaa !5
  %106 = load <4 x i32>, <4 x i32>* %40, align 16, !tbaa !5
  %107 = shl nsw <4 x i32> %106, <i32 1, i32 1, i32 1, i32 1>
  store <4 x i32> %107, <4 x i32>* %41, align 16, !tbaa !5
  %108 = load <4 x i32>, <4 x i32>* %43, align 16, !tbaa !5
  %109 = shl nsw <4 x i32> %108, <i32 1, i32 1, i32 1, i32 1>
  store <4 x i32> %109, <4 x i32>* %44, align 16, !tbaa !5
  %110 = load <4 x i32>, <4 x i32>* %46, align 16, !tbaa !5
  %111 = shl nsw <4 x i32> %110, <i32 1, i32 1, i32 1, i32 1>
  store <4 x i32> %111, <4 x i32>* %47, align 16, !tbaa !5
  %112 = load <4 x i32>, <4 x i32>* %49, align 16, !tbaa !5
  %113 = shl nsw <4 x i32> %112, <i32 1, i32 1, i32 1, i32 1>
  store <4 x i32> %113, <4 x i32>* %50, align 16, !tbaa !5
  %114 = load <4 x i32>, <4 x i32>* %52, align 16, !tbaa !5
  %115 = shl nsw <4 x i32> %114, <i32 1, i32 1, i32 1, i32 1>
  store <4 x i32> %115, <4 x i32>* %53, align 16, !tbaa !5
  %116 = load <4 x i32>, <4 x i32>* %55, align 16, !tbaa !5
  %117 = shl nsw <4 x i32> %116, <i32 1, i32 1, i32 1, i32 1>
  store <4 x i32> %117, <4 x i32>* %56, align 16, !tbaa !5
  %118 = load <4 x i32>, <4 x i32>* %58, align 16, !tbaa !5
  %119 = shl nsw <4 x i32> %118, <i32 1, i32 1, i32 1, i32 1>
  store <4 x i32> %119, <4 x i32>* %59, align 16, !tbaa !5
  %120 = load <4 x i32>, <4 x i32>* %61, align 16, !tbaa !5
  %121 = shl nsw <4 x i32> %120, <i32 1, i32 1, i32 1, i32 1>
  store <4 x i32> %121, <4 x i32>* %62, align 16, !tbaa !5
  %122 = load <4 x i32>, <4 x i32>* %64, align 16, !tbaa !5
  %123 = shl nsw <4 x i32> %122, <i32 1, i32 1, i32 1, i32 1>
  store <4 x i32> %123, <4 x i32>* %65, align 16, !tbaa !5
  %124 = load <4 x i32>, <4 x i32>* %67, align 16, !tbaa !5
  %125 = shl nsw <4 x i32> %124, <i32 1, i32 1, i32 1, i32 1>
  store <4 x i32> %125, <4 x i32>* %68, align 16, !tbaa !5
  %126 = load <4 x i32>, <4 x i32>* %70, align 16, !tbaa !5
  %127 = shl nsw <4 x i32> %126, <i32 1, i32 1, i32 1, i32 1>
  store <4 x i32> %127, <4 x i32>* %71, align 16, !tbaa !5
  %128 = load <4 x i32>, <4 x i32>* %73, align 16, !tbaa !5
  %129 = shl nsw <4 x i32> %128, <i32 1, i32 1, i32 1, i32 1>
  store <4 x i32> %129, <4 x i32>* %74, align 16, !tbaa !5
  %130 = load <4 x i32>, <4 x i32>* %76, align 16, !tbaa !5
  %131 = shl nsw <4 x i32> %130, <i32 1, i32 1, i32 1, i32 1>
  store <4 x i32> %131, <4 x i32>* %77, align 16, !tbaa !5
  %132 = load <4 x i32>, <4 x i32>* %79, align 16, !tbaa !5
  %133 = shl nsw <4 x i32> %132, <i32 1, i32 1, i32 1, i32 1>
  store <4 x i32> %133, <4 x i32>* %80, align 16, !tbaa !5
  %134 = load <4 x i32>, <4 x i32>* %82, align 16, !tbaa !5
  %135 = shl nsw <4 x i32> %134, <i32 1, i32 1, i32 1, i32 1>
  store <4 x i32> %135, <4 x i32>* %83, align 16, !tbaa !5
  %136 = load <4 x i32>, <4 x i32>* %84, align 16, !tbaa !5
  %137 = shl nsw <4 x i32> %136, <i32 1, i32 1, i32 1, i32 1>
  store <4 x i32> %137, <4 x i32>* %85, align 16, !tbaa !5
  br label %138

138:                                              ; preds = %86, %151
  %139 = phi i64 [ %152, %151 ], [ 99, %86 ]
  %140 = getelementptr inbounds [100 x i32], [100 x i32]* %4, i64 0, i64 %139
  %141 = load i32, i32* %140, align 4, !tbaa !5
  %142 = icmp sgt i32 %141, 9
  br i1 %142, label %145, label %143

143:                                              ; preds = %138
  %144 = add nsw i64 %139, -1
  br label %151

145:                                              ; preds = %138
  %146 = add nsw i32 %141, -10
  store i32 %146, i32* %140, align 4, !tbaa !5
  %147 = add nsw i64 %139, -1
  %148 = getelementptr inbounds [100 x i32], [100 x i32]* %4, i64 0, i64 %147
  %149 = load i32, i32* %148, align 4, !tbaa !5
  %150 = add nsw i32 %149, 1
  store i32 %150, i32* %148, align 4, !tbaa !5
  br label %151

151:                                              ; preds = %143, %145
  %152 = phi i64 [ %144, %143 ], [ %147, %145 ]
  %153 = icmp eq i64 %139, 0
  br i1 %153, label %154, label %138, !llvm.loop !9

154:                                              ; preds = %151
  %155 = add nuw nsw i32 %87, 1
  %156 = icmp eq i32 %155, %9
  br i1 %156, label %157, label %86, !llvm.loop !11

157:                                              ; preds = %154, %2
  br label %158

158:                                              ; preds = %197, %157
  %159 = phi i64 [ 0, %157 ], [ %198, %197 ]
  %160 = getelementptr inbounds [100 x i32], [100 x i32]* %4, i64 0, i64 %159
  %161 = load i32, i32* %160, align 4, !tbaa !5
  %162 = icmp sgt i32 %161, 0
  br i1 %162, label %168, label %163

163:                                              ; preds = %158
  %164 = add nuw nsw i64 %159, 1
  %165 = getelementptr inbounds [100 x i32], [100 x i32]* %4, i64 0, i64 %164
  %166 = load i32, i32* %165, align 4, !tbaa !5
  %167 = icmp sgt i32 %166, 0
  br i1 %167, label %168, label %182

168:                                              ; preds = %192, %187, %182, %163, %158
  %169 = phi i64 [ %159, %158 ], [ %164, %163 ], [ %183, %182 ], [ %188, %187 ], [ %193, %192 ]
  %170 = trunc i64 %169 to i32
  %171 = icmp ult i32 %170, 100
  br i1 %171, label %172, label %181

172:                                              ; preds = %168
  %173 = and i64 %169, 4294967295
  br label %174

174:                                              ; preds = %172, %174
  %175 = phi i64 [ %173, %172 ], [ %179, %174 ]
  %176 = getelementptr inbounds [100 x i32], [100 x i32]* %4, i64 0, i64 %175
  %177 = load i32, i32* %176, align 4, !tbaa !5
  %178 = call i32 (i8*, ...) @printf(i8* nonnull dereferenceable(1) getelementptr inbounds ([3 x i8], [3 x i8]* @.str, i64 0, i64 0), i32 %177)
  %179 = add nuw nsw i64 %175, 1
  %180 = icmp eq i64 %179, 100
  br i1 %180, label %181, label %174, !llvm.loop !12

181:                                              ; preds = %197, %174, %168
  call void @llvm.lifetime.end.p0i8(i64 400, i8* nonnull %6) #4
  call void @llvm.lifetime.end.p0i8(i64 4, i8* nonnull %5) #4
  ret i32 0

182:                                              ; preds = %163
  %183 = add nuw nsw i64 %159, 2
  %184 = getelementptr inbounds [100 x i32], [100 x i32]* %4, i64 0, i64 %183
  %185 = load i32, i32* %184, align 4, !tbaa !5
  %186 = icmp sgt i32 %185, 0
  br i1 %186, label %168, label %187

187:                                              ; preds = %182
  %188 = add nuw nsw i64 %159, 3
  %189 = getelementptr inbounds [100 x i32], [100 x i32]* %4, i64 0, i64 %188
  %190 = load i32, i32* %189, align 4, !tbaa !5
  %191 = icmp sgt i32 %190, 0
  br i1 %191, label %168, label %192

192:                                              ; preds = %187
  %193 = add nuw nsw i64 %159, 4
  %194 = getelementptr inbounds [100 x i32], [100 x i32]* %4, i64 0, i64 %193
  %195 = load i32, i32* %194, align 4, !tbaa !5
  %196 = icmp sgt i32 %195, 0
  br i1 %196, label %168, label %197

197:                                              ; preds = %192
  %198 = add nuw nsw i64 %159, 5
  %199 = icmp eq i64 %198, 100
  br i1 %199, label %181, label %158, !llvm.loop !13
}

; Function Attrs: argmemonly mustprogress nofree nosync nounwind willreturn
declare void @llvm.lifetime.start.p0i8(i64 immarg, i8* nocapture) #1

; Function Attrs: argmemonly mustprogress nofree nounwind willreturn writeonly
declare void @llvm.memset.p0i8.i64(i8* nocapture writeonly, i8, i64, i1 immarg) #2

; Function Attrs: nofree nounwind
declare noundef i32 @__isoc99_scanf(i8* nocapture noundef readonly, ...) local_unnamed_addr #3

; Function Attrs: nofree nounwind
declare noundef i32 @printf(i8* nocapture noundef readonly, ...) local_unnamed_addr #3

; Function Attrs: argmemonly mustprogress nofree nosync nounwind willreturn
declare void @llvm.lifetime.end.p0i8(i64 immarg, i8* nocapture) #1


!llvm.module.flags = !{!0, !1, !2, !3}
!llvm.ident = !{!4}

!0 = !{i32 1, !"wchar_size", i32 4}
!1 = !{i32 7, !"PIC Level", i32 2}
!2 = !{i32 7, !"PIE Level", i32 2}
!3 = !{i32 7, !"uwtable", i32 1}
!4 = !{!"clang version 13.0.0"}
!5 = !{!6, !6, i64 0}
!6 = !{!"int", !7, i64 0}
!7 = !{!"omnipotent char", !8, i64 0}
!8 = !{!"Simple C/C++ TBAA"}
!9 = distinct !{!9, !10}
!10 = !{!"llvm.loop.mustprogress"}
!11 = distinct !{!11, !10}
!12 = distinct !{!12, !10}
!13 = distinct !{!13, !10}
